; Function Attrs: mustprogress nofree norecurse nosync nounwind willreturn memory(read, inaccessiblemem: none) uwtable
define i32 @Map_NodeReadAigId(ptr noundef readonly captures(none) %0) local_unnamed_addr #3 {
  %2 = load ptr, ptr %0, align 8, !tbaa !59
  %3 = getelementptr inbounds nuw i8, ptr %2, i64 104
  %4 = load ptr, ptr %3, align 8, !tbaa !58
  %5 = getelementptr inbounds nuw i8, ptr %0, i64 16
  %6 = load i32, ptr %5, align 8, !tbaa !61
  %7 = sext i32 %6 to i64
  %8 = getelementptr inbounds i32, ptr %4, i64 %7
  %9 = load i32, ptr %8, align 4, !tbaa !62
  ret i32 %9
}